target datalayout = "e-m:e-p270:32:32-p271:32:32-p272:64:64-i64:64-i128:128-f80:128-n8:16:32:64-S128"
target triple = "x86_64-pc-linux-gnu"

; Function Attrs: nounwind uwtable
define dso_local void @packstr_func(ptr noundef %0, i16 noundef zeroext %1, ptr noundef %2) #0 {
  %4 = alloca ptr, align 8
  %5 = alloca i16, align 2
  %6 = alloca ptr, align 8
  %7 = alloca i32, align 4
  store ptr %0, ptr %4, align 8
  store i16 %1, ptr %5, align 2
  store ptr %2, ptr %6, align 8
  br label %8

8:                                                ; preds = %3
  call void @llvm.lifetime.start.p0(i64 4, ptr %7) #9
  store i32 0, ptr %7, align 4
  %9 = load ptr, ptr %4, align 8
  %10 = icmp ne ptr %9, null
  br i1 %10, label %11, label %16

11:                                               ; preds = %8
  %12 = load ptr, ptr %4, align 8
  %13 = call i64 @strlen(ptr noundef %12) #11
  %14 = trunc i64 %13 to i32
  %15 = add i32 %14, 1
  store i32 %15, ptr %7, align 4
  br label %16

16:                                               ; preds = %11, %8
  %17 = load ptr, ptr %4, align 8
  %18 = load i32, ptr %7, align 4
  %19 = load ptr, ptr %6, align 8
  call void @packmem(ptr noundef %17, i32 noundef %18, ptr noundef %19)
  call void @llvm.lifetime.end.p0(i64 4, ptr %7) #9
  br label %20

20:                                               ; preds = %16
  ret void
}