; Function Attrs: nounwind uwtable
define dso_local void @packstr_func(ptr noundef readonly captures(address_is_null) %0, i16 zeroext %1, ptr noundef %2) #0 {
  %.not = icmp eq ptr %0, null
  br i1 %.not, label %.split, label %.split5

.split:                                           ; preds = %3
  %4 = getelementptr inbounds nuw i8, ptr %2, i64 16
  %5 = load i32, ptr %4, align 8
  %6 = getelementptr inbounds nuw i8, ptr %2, i64 20
  %7 = load i32, ptr %6, align 4
  %8 = sub i32 %5, %7
  %9 = icmp ult i32 %8, 4
  br i1 %9, label %10, label %try_grow_buf_remaining.exit.i

10:                                               ; preds = %.split
  %11 = add i32 %5, 16384
  %12 = zext i32 %11 to i64
  %13 = getelementptr inbounds nuw i8, ptr %2, i64 24
  %14 = load i8, ptr %13, align 8, !range !8, !noundef !9
  %15 = trunc nuw i8 %14 to i1
  br i1 %15, label %packmem.exit, label %16

16:                                               ; preds = %10
  %17 = getelementptr inbounds nuw i8, ptr %2, i64 25
  %18 = load i8, ptr %17, align 1, !range !8, !noundef !9
  %19 = trunc nuw i8 %18 to i1
  br i1 %19, label %packmem.exit, label %20

20:                                               ; preds = %16
  %21 = icmp ugt i32 %11, -65536
  br i1 %21, label %22, label %24

22:                                               ; preds = %20
  %23 = tail call i32 (ptr, ...) @error(ptr noundef nonnull @.str.8, ptr noundef nonnull @__func__.try_grow_buf, i64 noundef %12, i32 noundef -65536) #14
  br label %packmem.exit

24:                                               ; preds = %20
  %25 = getelementptr inbounds nuw i8, ptr %2, i64 8
  %26 = tail call ptr @slurm_xrecalloc(ptr noundef nonnull %25, i64 noundef 1, i64 noundef %12, i1 noundef zeroext true, i1 noundef zeroext true, ptr noundef nonnull @.str.1, i32 noundef 238, ptr noundef nonnull @__func__.try_grow_buf) #14
  %.not.i.i.i = icmp eq ptr %26, null
  br i1 %.not.i.i.i, label %packmem.exit, label %27

27:                                               ; preds = %24
  store i32 %11, ptr %4, align 8
  %.pre.i = load i32, ptr %6, align 4
  br label %try_grow_buf_remaining.exit.i

try_grow_buf_remaining.exit.i:                    ; preds = %27, %.split
  %28 = phi i32 [ %.pre.i, %27 ], [ %7, %.split ]
  %29 = getelementptr inbounds nuw i8, ptr %2, i64 8
  %30 = load ptr, ptr %29, align 8
  %31 = zext i32 %28 to i64
  %32 = getelementptr inbounds nuw i8, ptr %30, i64 %31
  store i32 0, ptr %32, align 1
  %33 = load i32, ptr %6, align 4
  %34 = add i32 %33, 4
  store i32 %34, ptr %6, align 4
  br label %packmem.exit

.split5:                                          ; preds = %3
  %35 = tail call i64 @strlen(ptr noundef nonnull dereferenceable(1) %0) #16
  %36 = trunc i64 %35 to i32
  %37 = add i32 %36, 1
  tail call void @packmem(ptr noundef nonnull %0, i32 noundef %37, ptr noundef %2)
  br label %packmem.exit

packmem.exit:                                     ; preds = %try_grow_buf_remaining.exit.i, %24, %22, %16, %10, %.split5
  ret void
}